Certificate:
    Data:
        Version: 3 (0x2)
        Serial Number: 299 (0x12b)
        Signature Algorithm: md5WithRSAEncryption
        Issuer: C=AR, ST=Capital Federal, L=Capital Federal, O=Administraci\xF3n Federal de Ingresos P\xFAblicos, OU=DEP SEGURIDAD INFORMATICA(13FDA00), CN=AFIP-Autoridad Certificante/Email=ac@afip.gov.ar
        Validity
            Not Before: Mar 13 15:36:02 2003 GMT
            Not After : Mar 12 15:36:02 2004 GMT
        Subject: C=AR, ST=Capital Federal, L=Capital Federal, O=AFIP, OU=DESEIN, CN=AuthServer/Email=desein@afip.gov.ar
        Subject Public Key Info:
            Public Key Algorithm: rsaEncryption
            RSA Public Key: (1024 bit)
                Modulus (1024 bit):
                    00:b7:ed:63:10:e6:d4:f0:7a:bb:8d:55:e0:cf:ae:
                    09:08:82:f1:b4:40:c0:a6:2b:ae:8c:7a:c8:fe:f3:
                    f5:09:f0:2b:5c:fa:cc:4f:4e:6e:83:35:12:94:4b:
                    dc:97:aa:4c:e1:fe:6a:4f:55:b5:bb:10:b3:57:a0:
                    3f:7d:33:54:91:71:2c:53:01:aa:c8:e7:f6:c4:7b:
                    bf:81:56:40:30:b2:7c:ae:95:eb:a8:31:a6:7a:3b:
                    e3:8c:18:98:eb:75:64:42:55:7c:9b:48:ba:be:5d:
                    f6:de:be:8f:19:bc:13:69:b1:d0:a4:ca:e5:47:f2:
                    49:d3:2a:83:c7:c1:67:ef:9b
                Exponent: 65537 (0x10001)
        X509v3 extensions:
            X509v3 Basic Constraints: 
                CA:FALSE
            Netscape Cert Type: 
                SSL Server, Object Signing
            X509v3 Key Usage: 
                Digital Signature, Non Repudiation, Key Encipherment
            Netscape Comment: 
                DESEIN-CA Certificado de SERVIDOR clase 2
            X509v3 Subject Key Identifier: 
                58:2F:99:80:C4:E1:ED:13:94:AC:7A:26:E7:92:E0:32:03:37:C1:22
            X509v3 Authority Key Identifier: 
                keyid:46:44:44:47:9C:81:A8:5C:50:40:63:1E:7C:9E:FA:32:3A:97:90:60
                DirName:/C=AR/ST=Capital Federal/L=Capital Federal/O=Administraci\xF3n Federal de Ingresos P\xFAblicos/OU=DEP SEGURIDAD INFORMATICA(13FDA00)/CN=AFIP-Autoridad Certificante/Email=ac@afip.gov.ar
                serial:00

            X509v3 Subject Alternative Name: 
                email:desein@afip.gov.ar
            X509v3 Issuer Alternative Name: 
                email:ac@afip.gov.ar
    Signature Algorithm: md5WithRSAEncryption
        a0:6d:ea:00:e5:03:38:7f:a8:d9:45:f0:17:89:35:74:b8:89:
        21:1d:16:93:27:a5:eb:ae:08:1b:8e:d9:2a:7f:9a:73:00:ff:
        83:28:8b:a2:81:c3:a2:c7:79:6c:fe:19:5c:d1:1d:27:b8:49:
        51:eb:97:a7:06:68:b5:95:35:6d:de:e7:84:3e:b3:3d:4c:23:
        f5:ad:10:8c:3c:9b:2f:12:61:ba:54:56:46:ac:cd:4d:b2:0b:
        aa:40:34:79:5b:eb:97:99:bf:b9:03:57:7d:6f:c5:3c:6f:3e:
        af:9e:36:8c:a9:18:4b:66:df:7b:c3:30:bb:17:3a:74:55:55:
        af:99:42:f0:1b:26:74:a2:eb:f7:92:b8:28:b3:c8:26:92:d6:
        4b:52:2e:b2:94:3e:94:90:4e:5c:93:79:48:fe:51:58:ea:0e:
        71:74:a4:37:50:77:b5:6e:81:2a:00:3f:58:9c:03:f5:06:cc:
        82:db:c3:55:0f:ca:bd:94:83:ec:8f:6f:a6:1b:27:91:c0:f8:
        af:06:c3:03:a7:73:71:d2:47:ce:1c:53:89:7b:12:05:9d:03:
        a7:a0:a4:07:11:21:e9:75:9f:e1:aa:51:88:67:43:63:36:11:
        67:02:a1:51:6c:45:f9:43:0a:e3:68:b7:f8:ce:26:60:67:ca:
        dd:f8:20:8b
-----BEGIN CERTIFICATE-----
MIIFXDCCBESgAwIBAgICASswDQYJKoZIhvcNAQEEBQAwgekxCzAJBgNVBAYTAkFS
MRgwFgYDVQQIEw9DYXBpdGFsIEZlZGVyYWwxGDAWBgNVBAcTD0NhcGl0YWwgRmVk
ZXJhbDE0MDIGA1UEChQrQWRtaW5pc3RyYWNp824gRmVkZXJhbCBkZSBJbmdyZXNv
cyBQ+mJsaWNvczErMCkGA1UECxMiREVQIFNFR1VSSURBRCBJTkZPUk1BVElDQSgx
M0ZEQTAwKTEkMCIGA1UEAxMbQUZJUC1BdXRvcmlkYWQgQ2VydGlmaWNhbnRlMR0w
GwYJKoZIhvcNAQkBFg5hY0BhZmlwLmdvdi5hcjAeFw0wMzAzMTMxNTM2MDJaFw0w
NDAzMTIxNTM2MDJaMIGZMQswCQYDVQQGEwJBUjEYMBYGA1UECBMPQ2FwaXRhbCBG
ZWRlcmFsMRgwFgYDVQQHEw9DYXBpdGFsIEZlZGVyYWwxDTALBgNVBAoTBEFGSVAx
DzANBgNVBAsTBkRFU0VJTjETMBEGA1UEAxMKQXV0aFNlcnZlcjEhMB8GCSqGSIb3
DQEJARYSZGVzZWluQGFmaXAuZ292LmFyMIGfMA0GCSqGSIb3DQEBAQUAA4GNADCB
iQKBgQC37WMQ5tTweruNVeDPrgkIgvG0QMCmK66Mesj+8/UJ8Ctc+sxPTm6DNRKU
S9yXqkzh/mpPVbW7ELNXoD99M1SRcSxTAarI5/bEe7+BVkAwsnyuleuoMaZ6O+OM
GJjrdWRCVXybSLq+Xfbevo8ZvBNpsdCkyuVH8knTKoPHwWfvmwIDAQABo4IB3jCC
AdowCQYDVR0TBAIwADARBglghkgBhvhCAQEEBAMCBFAwCwYDVR0PBAQDAgXgMDgG
CWCGSAGG+EIBDQQrFilERVNFSU4tQ0EgQ2VydGlmaWNhZG8gZGUgU0VSVklET1Ig
Y2xhc2UgMjAdBgNVHQ4EFgQUWC+ZgMTh7ROUrHom55LgMgM3wSIwggEYBgNVHSME
ggEPMIIBC4AURkRER5yBqFxQQGMefJ76MjqXkGChge+kgewwgekxCzAJBgNVBAYT
AkFSMRgwFgYDVQQIEw9DYXBpdGFsIEZlZGVyYWwxGDAWBgNVBAcTD0NhcGl0YWwg
RmVkZXJhbDE0MDIGA1UEChQrQWRtaW5pc3RyYWNp824gRmVkZXJhbCBkZSBJbmdy
ZXNvcyBQ+mJsaWNvczErMCkGA1UECxMiREVQIFNFR1VSSURBRCBJTkZPUk1BVElD
QSgxM0ZEQTAwKTEkMCIGA1UEAxMbQUZJUC1BdXRvcmlkYWQgQ2VydGlmaWNhbnRl
MR0wGwYJKoZIhvcNAQkBFg5hY0BhZmlwLmdvdi5hcoIBADAdBgNVHREEFjAUgRJk
ZXNlaW5AYWZpcC5nb3YuYXIwGQYDVR0SBBIwEIEOYWNAYWZpcC5nb3YuYXIwDQYJ
KoZIhvcNAQEEBQADggEBAKBt6gDlAzh/qNlF8BeJNXS4iSEdFpMnpeuuCBuO2Sp/
mnMA/4Moi6KBw6LHeWz+GVzRHSe4SVHrl6cGaLWVNW3e54Q+sz1MI/WtEIw8my8S
YbpUVkaszU2yC6pANHlb65eZv7kDV31vxTxvPq+eNoypGEtm33vDMLsXOnRVVa+Z
QvAbJnSi6/eSuCizyCaS1ktSLrKUPpSQTlyTeUj+UVjqDnF0pDdQd7VugSoAP1ic
A/UGzILbw1UPyr2Ug+yPb6YbJ5HA+K8GwwOnc3HSR84cU4l7EgWdA6egpAcRIel1
n+GqUYhnQ2M2EWcCoVFsRflDCuNot/jOJmBnyt34IIs=
-----END CERTIFICATE-----
